; Function Attrs: uwtable
define hidden void @_ZTvn24_n48_NK5osgeo4proj9operation10Conversion12_exportToWKTEPNS0_2io12WKTFormatterE(ptr noundef %0, ptr noundef nonnull %1) unnamed_addr #8 align 2 {
  %3 = getelementptr inbounds i8, ptr %0, i64 -24
  %4 = load ptr, ptr %3, align 8, !tbaa !3
  %5 = getelementptr inbounds i8, ptr %4, i64 -48
  %6 = load i64, ptr %5, align 8
  %7 = getelementptr inbounds i8, ptr %3, i64 %6
  tail call void @_ZNK5osgeo4proj9operation10Conversion12_exportToWKTEPNS0_2io12WKTFormatterE(ptr noundef nonnull align 8 dereferenceable(24) %7, ptr noundef %1)
  ret void
}